; ModuleID = 'source-C-CXX/27/1807.c'
source_filename = "source-C-CXX/27/1807.c"
target datalayout = "e-m:e-p270:32:32-p271:32:32-p272:64:64-i64:64-f80:128-n8:16:32:64-S128"
target triple = "x86_64-pc-linux-gnu"

@str = dso_local global [10000 x i8] zeroinitializer, align 16
@.str = private unnamed_addr constant [3 x i8] c"%d\00", align 1
@.str.1 = private unnamed_addr constant [4 x i8] c",%d\00", align 1

; Function Attrs: nounwind sspstrong uwtable
define dso_local i32 @main() local_unnamed_addr #0 {
  %1 = tail call i32 (i8*, ...) bitcast (i32 (...)* @gets to i32 (i8*, ...)*)(i8* getelementptr inbounds ([10000 x i8], [10000 x i8]* @str, i64 0, i64 0)) #4
  %2 = tail call i64 @strlen(i8* noundef nonnull dereferenceable(1) getelementptr inbounds ([10000 x i8], [10000 x i8]* @str, i64 0, i64 0)) #5
  %3 = trunc i64 %2 to i32
  %4 = icmp sgt i32 %3, 0
  br i1 %4, label %5, label %33

5:                                                ; preds = %0
  %6 = and i64 %2, 4294967295
  br label %7

7:                                                ; preds = %5, %25
  %8 = phi i64 [ 0, %5 ], [ %29, %25 ]
  %9 = phi i32 [ 0, %5 ], [ %28, %25 ]
  %10 = phi i32 [ 0, %5 ], [ %27, %25 ]
  %11 = phi i32 [ 0, %5 ], [ %26, %25 ]
  %12 = getelementptr inbounds [10000 x i8], [10000 x i8]* @str, i64 0, i64 %8
  %13 = load i8, i8* %12, align 1, !tbaa !5
  %14 = icmp eq i8 %13, 32
  br i1 %14, label %17, label %15

15:                                               ; preds = %7
  %16 = add nsw i32 %11, 1
  br label %25

17:                                               ; preds = %7
  %18 = icmp eq i32 %10, 0
  br i1 %18, label %19, label %25

19:                                               ; preds = %17
  %20 = icmp eq i32 %9, 0
  br i1 %20, label %21, label %23

21:                                               ; preds = %19
  %22 = tail call i32 (i8*, ...) @printf(i8* nonnull dereferenceable(1) getelementptr inbounds ([3 x i8], [3 x i8]* @.str, i64 0, i64 0), i32 %11)
  br label %25

23:                                               ; preds = %19
  %24 = tail call i32 (i8*, ...) @printf(i8* nonnull dereferenceable(1) getelementptr inbounds ([4 x i8], [4 x i8]* @.str.1, i64 0, i64 0), i32 %11)
  br label %25

25:                                               ; preds = %21, %23, %15, %17
  %26 = phi i32 [ %16, %15 ], [ %11, %17 ], [ 0, %23 ], [ 0, %21 ]
  %27 = phi i32 [ 0, %15 ], [ 1, %17 ], [ 1, %23 ], [ 1, %21 ]
  %28 = phi i32 [ %9, %15 ], [ %9, %17 ], [ 1, %23 ], [ 1, %21 ]
  %29 = add nuw nsw i64 %8, 1
  %30 = icmp eq i64 %29, %6
  br i1 %30, label %31, label %7, !llvm.loop !8

31:                                               ; preds = %25
  %32 = icmp eq i32 %28, 0
  br i1 %32, label %33, label %36

33:                                               ; preds = %0, %31
  %34 = phi i32 [ %26, %31 ], [ 0, %0 ]
  %35 = tail call i32 (i8*, ...) @printf(i8* nonnull dereferenceable(1) getelementptr inbounds ([3 x i8], [3 x i8]* @.str, i64 0, i64 0), i32 %34)
  br label %38

36:                                               ; preds = %31
  %37 = tail call i32 (i8*, ...) @printf(i8* nonnull dereferenceable(1) getelementptr inbounds ([4 x i8], [4 x i8]* @.str.1, i64 0, i64 0), i32 %26)
  br label %38

38:                                               ; preds = %36, %33
  ret i32 0
}

declare i32 @gets(...) local_unnamed_addr #1

; Function Attrs: argmemonly mustprogress nofree nounwind readonly willreturn
declare i64 @strlen(i8* nocapture) local_unnamed_addr #2

; Function Attrs: nofree nounwind
declare noundef i32 @printf(i8* nocapture noundef readonly, ...) local_unnamed_addr #3


!llvm.module.flags = !{!0, !1, !2, !3}
!llvm.ident = !{!4}

!0 = !{i32 1, !"wchar_size", i32 4}
!1 = !{i32 7, !"PIC Level", i32 2}
!2 = !{i32 7, !"PIE Level", i32 2}
!3 = !{i32 7, !"uwtable", i32 1}
!4 = !{!"clang version 13.0.0"}
!5 = !{!6, !6, i64 0}
!6 = !{!"omnipotent char", !7, i64 0}
!7 = !{!"Simple C/C++ TBAA"}
!8 = distinct !{!8, !9}
!9 = !{!"llvm.loop.mustprogress"}
